; Function Attrs: mustprogress nounwind uwtable
define dso_local noundef ptr @_ZNK4llvm24TargetLoweringObjectFile28getSymbolWithGlobalValueBaseEPKNS_11GlobalValueENS_9StringRefERKNS_13TargetMachineE(ptr noundef nonnull readonly align 8 captures(none) dereferenceable(968) %0, ptr noundef %1, ptr %2, i64 %3, ptr noundef nonnull align 8 dereferenceable(1232) %4) local_unnamed_addr #0 align 2 {
switch.lookup:
  %5 = alloca %"class.llvm::SmallString.188", align 8
  %6 = alloca %"class.llvm::Twine", align 8
  %7 = getelementptr inbounds nuw i8, ptr %5, i64 24
  call void @_ZN4llvm15SmallVectorBaseImEC2EPvm(ptr noundef nonnull align 8 dereferenceable(84) %5, ptr noundef nonnull %7, i64 noundef 60) #16
  %8 = call noundef nonnull align 8 dereferenceable(512) ptr @_ZNK4llvm11GlobalValue13getDataLayoutEv(ptr noundef nonnull align 8 dereferenceable(48) %1) #16
  %9 = getelementptr inbounds nuw i8, ptr %8, i64 24
  %10 = load i32, ptr %9, align 8
  %11 = sext i32 %10 to i64
  %switch.gep = getelementptr inbounds [8 x i64], ptr @switch.table._ZNK4llvm24TargetLoweringObjectFile28getSymbolWithGlobalValueBaseEPKNS_11GlobalValueENS_9StringRefERKNS_13TargetMachineE, i64 0, i64 %11
  %switch.load = load i64, ptr %switch.gep, align 8
  %12 = sext i32 %10 to i64
  %switch.gep5 = getelementptr inbounds [8 x ptr], ptr @switch.table._ZNK4llvm24TargetLoweringObjectFile28getSymbolWithGlobalValueBaseEPKNS_11GlobalValueENS_9StringRefERKNS_13TargetMachineE.2, i64 0, i64 %12
  %switch.load6 = load ptr, ptr %switch.gep5, align 8
  %13 = getelementptr inbounds nuw i8, ptr %switch.load6, i64 %switch.load
  call void @_ZN4llvm15SmallVectorImplIcE6appendIPKcvEEvT_S5_(ptr noundef nonnull align 8 dereferenceable(84) %5, ptr noundef nonnull %switch.load6, ptr noundef nonnull %13)
  %14 = getelementptr inbounds nuw i8, ptr %0, i64 912
  %15 = load ptr, ptr %14, align 8
  call void @_ZNK4llvm13TargetMachine17getNameWithPrefixERNS_15SmallVectorImplIcEEPKNS_11GlobalValueERNS_7ManglerEb(ptr noundef nonnull align 8 dereferenceable(1232) %4, ptr noundef nonnull align 8 dereferenceable(24) %5, ptr noundef nonnull %1, ptr noundef nonnull align 8 dereferenceable(24) %15, i1 noundef zeroext false) #16
  %16 = getelementptr inbounds i8, ptr %2, i64 %3
  call void @_ZN4llvm15SmallVectorImplIcE6appendIPKcvEEvT_S5_(ptr noundef nonnull align 8 dereferenceable(24) %5, ptr noundef %2, ptr noundef %16)
  %17 = getelementptr inbounds nuw i8, ptr %0, i64 904
  %18 = load ptr, ptr %17, align 8
  %19 = getelementptr inbounds nuw i8, ptr %6, i64 32
  store i8 5, ptr %19, align 8
  %20 = getelementptr inbounds nuw i8, ptr %6, i64 33
  store i8 1, ptr %20, align 1
  %21 = load ptr, ptr %5, align 8
  store ptr %21, ptr %6, align 8
  %22 = call noundef i64 @_ZNK4llvm15SmallVectorBaseImE4sizeEv(ptr noundef nonnull align 8 dereferenceable(24) %5) #16
  %23 = getelementptr inbounds nuw i8, ptr %6, i64 8
  store i64 %22, ptr %23, align 8
  %24 = call noundef ptr @_ZN4llvm9MCContext17getOrCreateSymbolERKNS_5TwineE(ptr noundef nonnull align 8 dereferenceable(2432) %18, ptr noundef nonnull align 8 dereferenceable(34) %6) #16
  %25 = call noundef i64 @_ZNK4llvm15SmallVectorBaseImE4sizeEv(ptr noundef nonnull align 8 dereferenceable(84) %5) #16
  %26 = load ptr, ptr %5, align 8
  %27 = icmp eq ptr %26, %7
  br i1 %27, label %_ZN4llvm11SmallStringILj60EED2Ev.exit, label %28

28:                                               ; preds = %switch.lookup
  call void @free(ptr noundef %26) #16
  br label %_ZN4llvm11SmallStringILj60EED2Ev.exit

_ZN4llvm11SmallStringILj60EED2Ev.exit:            ; preds = %switch.lookup, %28
  ret ptr %24
}